
lab4:     file format elf64-x86-64


Disassembly of section .init:

00000000000006b8 <_init>:
 6b8:	48 83 ec 08          	sub    $0x8,%rsp
 6bc:	48 8b 05 25 19 20 00 	mov    0x201925(%rip),%rax        # 201fe8 <__gmon_start__>
 6c3:	48 85 c0             	test   %rax,%rax
 6c6:	74 02                	je     6ca <_init+0x12>
 6c8:	ff d0                	callq  *%rax
 6ca:	48 83 c4 08          	add    $0x8,%rsp
 6ce:	c3                   	retq   

Disassembly of section .plt:

00000000000006d0 <.plt>:
 6d0:	ff 35 b2 18 20 00    	pushq  0x2018b2(%rip)        # 201f88 <_GLOBAL_OFFSET_TABLE_+0x8>
 6d6:	ff 25 b4 18 20 00    	jmpq   *0x2018b4(%rip)        # 201f90 <_GLOBAL_OFFSET_TABLE_+0x10>
 6dc:	0f 1f 40 00          	nopl   0x0(%rax)

00000000000006e0 <putchar@plt>:
 6e0:	ff 25 b2 18 20 00    	jmpq   *0x2018b2(%rip)        # 201f98 <putchar@GLIBC_2.2.5>
 6e6:	68 00 00 00 00       	pushq  $0x0
 6eb:	e9 e0 ff ff ff       	jmpq   6d0 <.plt>

00000000000006f0 <puts@plt>:
 6f0:	ff 25 aa 18 20 00    	jmpq   *0x2018aa(%rip)        # 201fa0 <puts@GLIBC_2.2.5>
 6f6:	68 01 00 00 00       	pushq  $0x1
 6fb:	e9 d0 ff ff ff       	jmpq   6d0 <.plt>

0000000000000700 <printf@plt>:
 700:	ff 25 a2 18 20 00    	jmpq   *0x2018a2(%rip)        # 201fa8 <printf@GLIBC_2.2.5>
 706:	68 02 00 00 00       	pushq  $0x2
 70b:	e9 c0 ff ff ff       	jmpq   6d0 <.plt>

0000000000000710 <fflush@plt>:
 710:	ff 25 9a 18 20 00    	jmpq   *0x20189a(%rip)        # 201fb0 <fflush@GLIBC_2.2.5>
 716:	68 03 00 00 00       	pushq  $0x3
 71b:	e9 b0 ff ff ff       	jmpq   6d0 <.plt>

0000000000000720 <execvp@plt>:
 720:	ff 25 92 18 20 00    	jmpq   *0x201892(%rip)        # 201fb8 <execvp@GLIBC_2.2.5>
 726:	68 04 00 00 00       	pushq  $0x4
 72b:	e9 a0 ff ff ff       	jmpq   6d0 <.plt>

0000000000000730 <atoi@plt>:
 730:	ff 25 8a 18 20 00    	jmpq   *0x20188a(%rip)        # 201fc0 <atoi@GLIBC_2.2.5>
 736:	68 05 00 00 00       	pushq  $0x5
 73b:	e9 90 ff ff ff       	jmpq   6d0 <.plt>

0000000000000740 <exit@plt>:
 740:	ff 25 82 18 20 00    	jmpq   *0x201882(%rip)        # 201fc8 <exit@GLIBC_2.2.5>
 746:	68 06 00 00 00       	pushq  $0x6
 74b:	e9 80 ff ff ff       	jmpq   6d0 <.plt>

0000000000000750 <sleep@plt>:
 750:	ff 25 7a 18 20 00    	jmpq   *0x20187a(%rip)        # 201fd0 <sleep@GLIBC_2.2.5>
 756:	68 07 00 00 00       	pushq  $0x7
 75b:	e9 70 ff ff ff       	jmpq   6d0 <.plt>

Disassembly of section .plt.got:

0000000000000760 <__cxa_finalize@plt>:
 760:	ff 25 92 18 20 00    	jmpq   *0x201892(%rip)        # 201ff8 <__cxa_finalize@GLIBC_2.2.5>
 766:	66 90                	xchg   %ax,%ax

Disassembly of section .text:

0000000000000770 <_start>:
 770:	31 ed                	xor    %ebp,%ebp
 772:	49 89 d1             	mov    %rdx,%r9
 775:	5e                   	pop    %rsi
 776:	48 89 e2             	mov    %rsp,%rdx
 779:	48 83 e4 f0          	and    $0xfffffffffffffff0,%rsp
 77d:	50                   	push   %rax
 77e:	54                   	push   %rsp
 77f:	4c 8d 05 5a 04 00 00 	lea    0x45a(%rip),%r8        # be0 <__libc_csu_fini>
 786:	48 8d 0d e3 03 00 00 	lea    0x3e3(%rip),%rcx        # b70 <__libc_csu_init>
 78d:	48 8d 3d 8e 01 00 00 	lea    0x18e(%rip),%rdi        # 922 <main>
 794:	ff 15 46 18 20 00    	callq  *0x201846(%rip)        # 201fe0 <__libc_start_main@GLIBC_2.2.5>
 79a:	f4                   	hlt    
 79b:	0f 1f 44 00 00       	nopl   0x0(%rax,%rax,1)

00000000000007a0 <deregister_tm_clones>:
 7a0:	48 8d 3d 69 18 20 00 	lea    0x201869(%rip),%rdi        # 202010 <stdout@@GLIBC_2.2.5>
 7a7:	55                   	push   %rbp
 7a8:	48 8d 05 61 18 20 00 	lea    0x201861(%rip),%rax        # 202010 <stdout@@GLIBC_2.2.5>
 7af:	48 39 f8             	cmp    %rdi,%rax
 7b2:	48 89 e5             	mov    %rsp,%rbp
 7b5:	74 19                	je     7d0 <deregister_tm_clones+0x30>
 7b7:	48 8b 05 1a 18 20 00 	mov    0x20181a(%rip),%rax        # 201fd8 <_ITM_deregisterTMCloneTable>
 7be:	48 85 c0             	test   %rax,%rax
 7c1:	74 0d                	je     7d0 <deregister_tm_clones+0x30>
 7c3:	5d                   	pop    %rbp
 7c4:	ff e0                	jmpq   *%rax
 7c6:	66 2e 0f 1f 84 00 00 	nopw   %cs:0x0(%rax,%rax,1)
 7cd:	00 00 00 
 7d0:	5d                   	pop    %rbp
 7d1:	c3                   	retq   
 7d2:	0f 1f 40 00          	nopl   0x0(%rax)
 7d6:	66 2e 0f 1f 84 00 00 	nopw   %cs:0x0(%rax,%rax,1)
 7dd:	00 00 00 

00000000000007e0 <register_tm_clones>:
 7e0:	48 8d 3d 29 18 20 00 	lea    0x201829(%rip),%rdi        # 202010 <stdout@@GLIBC_2.2.5>
 7e7:	48 8d 35 22 18 20 00 	lea    0x201822(%rip),%rsi        # 202010 <stdout@@GLIBC_2.2.5>
 7ee:	55                   	push   %rbp
 7ef:	48 29 fe             	sub    %rdi,%rsi
 7f2:	48 89 e5             	mov    %rsp,%rbp
 7f5:	48 c1 fe 03          	sar    $0x3,%rsi
 7f9:	48 89 f0             	mov    %rsi,%rax
 7fc:	48 c1 e8 3f          	shr    $0x3f,%rax
 800:	48 01 c6             	add    %rax,%rsi
 803:	48 d1 fe             	sar    %rsi
 806:	74 18                	je     820 <register_tm_clones+0x40>
 808:	48 8b 05 e1 17 20 00 	mov    0x2017e1(%rip),%rax        # 201ff0 <_ITM_registerTMCloneTable>
 80f:	48 85 c0             	test   %rax,%rax
 812:	74 0c                	je     820 <register_tm_clones+0x40>
 814:	5d                   	pop    %rbp
 815:	ff e0                	jmpq   *%rax
 817:	66 0f 1f 84 00 00 00 	nopw   0x0(%rax,%rax,1)
 81e:	00 00 
 820:	5d                   	pop    %rbp
 821:	c3                   	retq   
 822:	0f 1f 40 00          	nopl   0x0(%rax)
 826:	66 2e 0f 1f 84 00 00 	nopw   %cs:0x0(%rax,%rax,1)
 82d:	00 00 00 

0000000000000830 <__do_global_dtors_aux>:
 830:	80 3d e1 17 20 00 00 	cmpb   $0x0,0x2017e1(%rip)        # 202018 <completed.7697>
 837:	75 2f                	jne    868 <__do_global_dtors_aux+0x38>
 839:	48 83 3d b7 17 20 00 	cmpq   $0x0,0x2017b7(%rip)        # 201ff8 <__cxa_finalize@GLIBC_2.2.5>
 840:	00 
 841:	55                   	push   %rbp
 842:	48 89 e5             	mov    %rsp,%rbp
 845:	74 0c                	je     853 <__do_global_dtors_aux+0x23>
 847:	48 8b 3d ba 17 20 00 	mov    0x2017ba(%rip),%rdi        # 202008 <__dso_handle>
 84e:	e8 0d ff ff ff       	callq  760 <__cxa_finalize@plt>
 853:	e8 48 ff ff ff       	callq  7a0 <deregister_tm_clones>
 858:	c6 05 b9 17 20 00 01 	movb   $0x1,0x2017b9(%rip)        # 202018 <completed.7697>
 85f:	5d                   	pop    %rbp
 860:	c3                   	retq   
 861:	0f 1f 80 00 00 00 00 	nopl   0x0(%rax)
 868:	f3 c3                	repz retq 
 86a:	66 0f 1f 44 00 00    	nopw   0x0(%rax,%rax,1)

0000000000000870 <frame_dummy>:
 870:	55                   	push   %rbp
 871:	48 89 e5             	mov    %rsp,%rbp
 874:	5d                   	pop    %rbp
 875:	e9 66 ff ff ff       	jmpq   7e0 <register_tm_clones>

000000000000087a <g>:
 87a:	55                   	push   %rbp
 87b:	48 89 e5             	mov    %rsp,%rbp
 87e:	48 8d 3d 73 03 00 00 	lea    0x373(%rip),%rdi        # bf8 <_IO_stdin_used+0x8>
 885:	e8 66 fe ff ff       	callq  6f0 <puts@plt>
 88a:	be 00 00 00 00       	mov    $0x0,%esi
 88f:	48 8d 3d 96 03 00 00 	lea    0x396(%rip),%rdi        # c2c <_IO_stdin_used+0x3c>
 896:	e8 85 fe ff ff       	callq  720 <execvp@plt>
 89b:	90                   	nop
 89c:	5d                   	pop    %rbp
 89d:	c3                   	retq   

000000000000089e <f>:
 89e:	55                   	push   %rbp
 89f:	48 89 e5             	mov    %rsp,%rbp
 8a2:	48 83 ec 10          	sub    $0x10,%rsp
 8a6:	48 89 7d f8          	mov    %rdi,-0x8(%rbp)
 8aa:	0f b6 05 6b 17 20 00 	movzbl 0x20176b(%rip),%eax        # 20201c <printstack>
 8b1:	84 c0                	test   %al,%al
 8b3:	74 10                	je     8c5 <f+0x27>
 8b5:	48 8d 45 f8          	lea    -0x8(%rbp),%rax
 8b9:	48 83 c0 30          	add    $0x30,%rax
 8bd:	48 89 c7             	mov    %rax,%rdi
 8c0:	e8 27 02 00 00       	callq  aec <printStack>
 8c5:	8b 05 55 17 20 00    	mov    0x201755(%rip),%eax        # 202020 <thevariable>
 8cb:	83 f8 31             	cmp    $0x31,%eax
 8ce:	7e 12                	jle    8e2 <f+0x44>
 8d0:	48 8d 45 f8          	lea    -0x8(%rbp),%rax
 8d4:	48 83 c0 30          	add    $0x30,%rax
 8d8:	48 8d 15 9b ff ff ff 	lea    -0x65(%rip),%rdx        # 87a <g>
 8df:	48 89 10             	mov    %rdx,(%rax)
 8e2:	0f b6 05 33 17 20 00 	movzbl 0x201733(%rip),%eax        # 20201c <printstack>
 8e9:	84 c0                	test   %al,%al
 8eb:	74 10                	je     8fd <f+0x5f>
 8ed:	48 8d 45 f8          	lea    -0x8(%rbp),%rax
 8f1:	48 83 c0 30          	add    $0x30,%rax
 8f5:	48 89 c7             	mov    %rax,%rdi
 8f8:	e8 ef 01 00 00       	callq  aec <printStack>
 8fd:	48 8b 45 f8          	mov    -0x8(%rbp),%rax
 901:	c9                   	leaveq 
 902:	c3                   	retq   

0000000000000903 <h>:
 903:	55                   	push   %rbp
 904:	48 89 e5             	mov    %rsp,%rbp
 907:	48 83 ec 10          	sub    $0x10,%rsp
 90b:	48 c7 45 f8 23 01 00 	movq   $0x123,-0x8(%rbp)
 912:	00 
 913:	48 8b 45 f8          	mov    -0x8(%rbp),%rax
 917:	48 89 c7             	mov    %rax,%rdi
 91a:	e8 7f ff ff ff       	callq  89e <f>
 91f:	90                   	nop
 920:	c9                   	leaveq 
 921:	c3                   	retq   

0000000000000922 <main>:
 922:	55                   	push   %rbp
 923:	48 89 e5             	mov    %rsp,%rbp
 926:	48 83 ec 10          	sub    $0x10,%rsp
 92a:	89 7d fc             	mov    %edi,-0x4(%rbp)
 92d:	48 89 75 f0          	mov    %rsi,-0x10(%rbp)
 931:	83 7d fc 01          	cmpl   $0x1,-0x4(%rbp)
 935:	7f 16                	jg     94d <main+0x2b>
 937:	48 8d 3d fa 02 00 00 	lea    0x2fa(%rip),%rdi        # c38 <_IO_stdin_used+0x48>
 93e:	e8 ad fd ff ff       	callq  6f0 <puts@plt>
 943:	bf 00 00 00 00       	mov    $0x0,%edi
 948:	e8 f3 fd ff ff       	callq  740 <exit@plt>
 94d:	48 8b 45 f0          	mov    -0x10(%rbp),%rax
 951:	48 83 c0 08          	add    $0x8,%rax
 955:	48 8b 00             	mov    (%rax),%rax
 958:	48 89 c7             	mov    %rax,%rdi
 95b:	e8 d0 fd ff ff       	callq  730 <atoi@plt>
 960:	89 05 ba 16 20 00    	mov    %eax,0x2016ba(%rip)        # 202020 <thevariable>
 966:	8b 05 b4 16 20 00    	mov    0x2016b4(%rip),%eax        # 202020 <thevariable>
 96c:	83 f8 31             	cmp    $0x31,%eax
 96f:	0f 8f e2 00 00 00    	jg     a57 <main+0x135>
 975:	48 8d 3d e6 02 00 00 	lea    0x2e6(%rip),%rdi        # c62 <_IO_stdin_used+0x72>
 97c:	b8 00 00 00 00       	mov    $0x0,%eax
 981:	e8 7a fd ff ff       	callq  700 <printf@plt>
 986:	48 8b 05 83 16 20 00 	mov    0x201683(%rip),%rax        # 202010 <stdout@@GLIBC_2.2.5>
 98d:	48 89 c7             	mov    %rax,%rdi
 990:	e8 7b fd ff ff       	callq  710 <fflush@plt>
 995:	bf 02 00 00 00       	mov    $0x2,%edi
 99a:	b8 00 00 00 00       	mov    $0x0,%eax
 99f:	e8 ac fd ff ff       	callq  750 <sleep@plt>
 9a4:	48 8d 3d cb 02 00 00 	lea    0x2cb(%rip),%rdi        # c76 <_IO_stdin_used+0x86>
 9ab:	b8 00 00 00 00       	mov    $0x0,%eax
 9b0:	e8 4b fd ff ff       	callq  700 <printf@plt>
 9b5:	48 8b 05 54 16 20 00 	mov    0x201654(%rip),%rax        # 202010 <stdout@@GLIBC_2.2.5>
 9bc:	48 89 c7             	mov    %rax,%rdi
 9bf:	e8 4c fd ff ff       	callq  710 <fflush@plt>
 9c4:	bf 02 00 00 00       	mov    $0x2,%edi
 9c9:	b8 00 00 00 00       	mov    $0x0,%eax
 9ce:	e8 7d fd ff ff       	callq  750 <sleep@plt>
 9d3:	8b 05 47 16 20 00    	mov    0x201647(%rip),%eax        # 202020 <thevariable>
 9d9:	83 f8 13             	cmp    $0x13,%eax
 9dc:	7f 13                	jg     9f1 <main+0xcf>
 9de:	48 8d 3d a3 02 00 00 	lea    0x2a3(%rip),%rdi        # c88 <_IO_stdin_used+0x98>
 9e5:	b8 00 00 00 00       	mov    $0x0,%eax
 9ea:	e8 11 fd ff ff       	callq  700 <printf@plt>
 9ef:	eb 2f                	jmp    a20 <main+0xfe>
 9f1:	8b 05 29 16 20 00    	mov    0x201629(%rip),%eax        # 202020 <thevariable>
 9f7:	83 f8 1d             	cmp    $0x1d,%eax
 9fa:	7f 13                	jg     a0f <main+0xed>
 9fc:	48 8d 3d 9a 02 00 00 	lea    0x29a(%rip),%rdi        # c9d <_IO_stdin_used+0xad>
 a03:	b8 00 00 00 00       	mov    $0x0,%eax
 a08:	e8 f3 fc ff ff       	callq  700 <printf@plt>
 a0d:	eb 11                	jmp    a20 <main+0xfe>
 a0f:	48 8d 3d a2 02 00 00 	lea    0x2a2(%rip),%rdi        # cb8 <_IO_stdin_used+0xc8>
 a16:	b8 00 00 00 00       	mov    $0x0,%eax
 a1b:	e8 e0 fc ff ff       	callq  700 <printf@plt>
 a20:	48 8b 05 e9 15 20 00 	mov    0x2015e9(%rip),%rax        # 202010 <stdout@@GLIBC_2.2.5>
 a27:	48 89 c7             	mov    %rax,%rdi
 a2a:	e8 e1 fc ff ff       	callq  710 <fflush@plt>
 a2f:	bf 02 00 00 00       	mov    $0x2,%edi
 a34:	b8 00 00 00 00       	mov    $0x0,%eax
 a39:	e8 12 fd ff ff       	callq  750 <sleep@plt>
 a3e:	bf 0a 00 00 00       	mov    $0xa,%edi
 a43:	e8 98 fc ff ff       	callq  6e0 <putchar@plt>
 a48:	48 8b 05 c1 15 20 00 	mov    0x2015c1(%rip),%rax        # 202010 <stdout@@GLIBC_2.2.5>
 a4f:	48 89 c7             	mov    %rax,%rdi
 a52:	e8 b9 fc ff ff       	callq  710 <fflush@plt>
 a57:	83 7d fc 02          	cmpl   $0x2,-0x4(%rbp)
 a5b:	75 09                	jne    a66 <main+0x144>
 a5d:	c6 05 b8 15 20 00 00 	movb   $0x0,0x2015b8(%rip)        # 20201c <printstack>
 a64:	eb 07                	jmp    a6d <main+0x14b>
 a66:	c6 05 af 15 20 00 01 	movb   $0x1,0x2015af(%rip)        # 20201c <printstack>
 a6d:	b8 00 00 00 00       	mov    $0x0,%eax
 a72:	e8 8c fe ff ff       	callq  903 <h>
 a77:	8b 05 a3 15 20 00    	mov    0x2015a3(%rip),%eax        # 202020 <thevariable>
 a7d:	83 f8 09             	cmp    $0x9,%eax
 a80:	7f 0e                	jg     a90 <main+0x16e>
 a82:	48 8d 3d 53 02 00 00 	lea    0x253(%rip),%rdi        # cdc <_IO_stdin_used+0xec>
 a89:	e8 62 fc ff ff       	callq  6f0 <puts@plt>
 a8e:	eb 55                	jmp    ae5 <main+0x1c3>
 a90:	8b 05 8a 15 20 00    	mov    0x20158a(%rip),%eax        # 202020 <thevariable>
 a96:	83 f8 13             	cmp    $0x13,%eax
 a99:	7f 0e                	jg     aa9 <main+0x187>
 a9b:	48 8d 3d 47 02 00 00 	lea    0x247(%rip),%rdi        # ce9 <_IO_stdin_used+0xf9>
 aa2:	e8 49 fc ff ff       	callq  6f0 <puts@plt>
 aa7:	eb 3c                	jmp    ae5 <main+0x1c3>
 aa9:	8b 05 71 15 20 00    	mov    0x201571(%rip),%eax        # 202020 <thevariable>
 aaf:	83 f8 1d             	cmp    $0x1d,%eax
 ab2:	7f 0e                	jg     ac2 <main+0x1a0>
 ab4:	48 8d 3d 3d 02 00 00 	lea    0x23d(%rip),%rdi        # cf8 <_IO_stdin_used+0x108>
 abb:	e8 30 fc ff ff       	callq  6f0 <puts@plt>
 ac0:	eb 23                	jmp    ae5 <main+0x1c3>
 ac2:	8b 05 58 15 20 00    	mov    0x201558(%rip),%eax        # 202020 <thevariable>
 ac8:	83 f8 27             	cmp    $0x27,%eax
 acb:	7f 18                	jg     ae5 <main+0x1c3>
 acd:	48 8d 3d 30 02 00 00 	lea    0x230(%rip),%rdi        # d04 <_IO_stdin_used+0x114>
 ad4:	e8 17 fc ff ff       	callq  6f0 <puts@plt>
 ad9:	48 8b 45 f0          	mov    -0x10(%rbp),%rax
 add:	48 89 c7             	mov    %rax,%rdi
 ae0:	e8 07 00 00 00       	callq  aec <printStack>
 ae5:	b8 00 00 00 00       	mov    $0x0,%eax
 aea:	c9                   	leaveq 
 aeb:	c3                   	retq   

0000000000000aec <printStack>:
 aec:	55                   	push   %rbp
 aed:	48 89 e5             	mov    %rsp,%rbp
 af0:	48 83 ec 20          	sub    $0x20,%rsp
 af4:	48 89 7d e8          	mov    %rdi,-0x18(%rbp)
 af8:	48 8d 3d 18 02 00 00 	lea    0x218(%rip),%rdi        # d17 <_IO_stdin_used+0x127>
 aff:	e8 ec fb ff ff       	callq  6f0 <puts@plt>
 b04:	c7 45 fc fd ff ff ff 	movl   $0xfffffffd,-0x4(%rbp)
 b0b:	eb 47                	jmp    b54 <printStack+0x68>
 b0d:	8b 45 fc             	mov    -0x4(%rbp),%eax
 b10:	48 98                	cltq   
 b12:	48 8d 14 c5 00 00 00 	lea    0x0(,%rax,8),%rdx
 b19:	00 
 b1a:	48 8b 45 e8          	mov    -0x18(%rbp),%rax
 b1e:	48 01 d0             	add    %rdx,%rax
 b21:	48 8b 00             	mov    (%rax),%rax
 b24:	8b 55 fc             	mov    -0x4(%rbp),%edx
 b27:	48 63 d2             	movslq %edx,%rdx
 b2a:	48 8d 0c d5 00 00 00 	lea    0x0(,%rdx,8),%rcx
 b31:	00 
 b32:	48 8b 55 e8          	mov    -0x18(%rbp),%rdx
 b36:	48 01 d1             	add    %rdx,%rcx
 b39:	48 89 c2             	mov    %rax,%rdx
 b3c:	48 89 ce             	mov    %rcx,%rsi
 b3f:	48 8d 3d d8 01 00 00 	lea    0x1d8(%rip),%rdi        # d1e <_IO_stdin_used+0x12e>
 b46:	b8 00 00 00 00       	mov    $0x0,%eax
 b4b:	e8 b0 fb ff ff       	callq  700 <printf@plt>
 b50:	83 45 fc 01          	addl   $0x1,-0x4(%rbp)
 b54:	83 7d fc 09          	cmpl   $0x9,-0x4(%rbp)
 b58:	7e b3                	jle    b0d <printStack+0x21>
 b5a:	48 8d 3d c6 01 00 00 	lea    0x1c6(%rip),%rdi        # d27 <_IO_stdin_used+0x137>
 b61:	e8 8a fb ff ff       	callq  6f0 <puts@plt>
 b66:	90                   	nop
 b67:	c9                   	leaveq 
 b68:	c3                   	retq   
 b69:	0f 1f 80 00 00 00 00 	nopl   0x0(%rax)

0000000000000b70 <__libc_csu_init>:
 b70:	41 57                	push   %r15
 b72:	41 56                	push   %r14
 b74:	49 89 d7             	mov    %rdx,%r15
 b77:	41 55                	push   %r13
 b79:	41 54                	push   %r12
 b7b:	4c 8d 25 fe 11 20 00 	lea    0x2011fe(%rip),%r12        # 201d80 <__frame_dummy_init_array_entry>
 b82:	55                   	push   %rbp
 b83:	48 8d 2d fe 11 20 00 	lea    0x2011fe(%rip),%rbp        # 201d88 <__do_global_dtors_aux_fini_array_entry>
 b8a:	53                   	push   %rbx
 b8b:	41 89 fd             	mov    %edi,%r13d
 b8e:	49 89 f6             	mov    %rsi,%r14
 b91:	4c 29 e5             	sub    %r12,%rbp
 b94:	48 83 ec 08          	sub    $0x8,%rsp
 b98:	48 c1 fd 03          	sar    $0x3,%rbp
 b9c:	e8 17 fb ff ff       	callq  6b8 <_init>
 ba1:	48 85 ed             	test   %rbp,%rbp
 ba4:	74 20                	je     bc6 <__libc_csu_init+0x56>
 ba6:	31 db                	xor    %ebx,%ebx
 ba8:	0f 1f 84 00 00 00 00 	nopl   0x0(%rax,%rax,1)
 baf:	00 
 bb0:	4c 89 fa             	mov    %r15,%rdx
 bb3:	4c 89 f6             	mov    %r14,%rsi
 bb6:	44 89 ef             	mov    %r13d,%edi
 bb9:	41 ff 14 dc          	callq  *(%r12,%rbx,8)
 bbd:	48 83 c3 01          	add    $0x1,%rbx
 bc1:	48 39 dd             	cmp    %rbx,%rbp
 bc4:	75 ea                	jne    bb0 <__libc_csu_init+0x40>
 bc6:	48 83 c4 08          	add    $0x8,%rsp
 bca:	5b                   	pop    %rbx
 bcb:	5d                   	pop    %rbp
 bcc:	41 5c                	pop    %r12
 bce:	41 5d                	pop    %r13
 bd0:	41 5e                	pop    %r14
 bd2:	41 5f                	pop    %r15
 bd4:	c3                   	retq   
 bd5:	90                   	nop
 bd6:	66 2e 0f 1f 84 00 00 	nopw   %cs:0x0(%rax,%rax,1)
 bdd:	00 00 00 

0000000000000be0 <__libc_csu_fini>:
 be0:	f3 c3                	repz retq 

Disassembly of section .fini:

0000000000000be4 <_fini>:
 be4:	48 83 ec 08          	sub    $0x8,%rsp
 be8:	48 83 c4 08          	add    $0x8,%rsp
 bec:	c3                   	retq   
